; Function Attrs: nounwind uwtable
define ptr @l_Lean_Compiler_LCNF_Specialize_initFn____x40_Lean_Compiler_LCNF_Specialize___hyg_49____lambda__1(ptr noundef readonly captures(none) %0) local_unnamed_addr #0 {
  %2 = load ptr, ptr @l_Lean_Compiler_LCNF_Specialize_initFn____x40_Lean_Compiler_LCNF_Specialize___hyg_49____lambda__1___closed__6, align 8, !tbaa !4
  %3 = getelementptr i8, ptr %0, i64 8
  %.val.i = load i64, ptr %3, align 8, !tbaa !12
  %.mask.i = and i64 %.val.i, 9223372036854775807
  %.not.i = icmp eq i64 %.mask.i, 0
  br i1 %.not.i, label %l_Lean_mkStateFromImportedEntries___at_Lean_Compiler_LCNF_Specialize_initFn____x40_Lean_Compiler_LCNF_Specialize___hyg_49____spec__1.exit, label %lean_dec.exit.i

lean_dec.exit.i:                                  ; preds = %1
  %4 = tail call ptr @l_Array_foldlMUnsafe_fold___at_Lean_Compiler_LCNF_Specialize_initFn____x40_Lean_Compiler_LCNF_Specialize___hyg_49____spec__3(ptr noundef nonnull readonly %0, i64 noundef 0, i64 noundef %.mask.i, ptr noundef %2)
  br label %l_Lean_mkStateFromImportedEntries___at_Lean_Compiler_LCNF_Specialize_initFn____x40_Lean_Compiler_LCNF_Specialize___hyg_49____spec__1.exit

l_Lean_mkStateFromImportedEntries___at_Lean_Compiler_LCNF_Specialize_initFn____x40_Lean_Compiler_LCNF_Specialize___hyg_49____spec__1.exit: ; preds = %1, %lean_dec.exit.i
  %.0.i = phi ptr [ %4, %lean_dec.exit.i ], [ %2, %1 ]
  %5 = tail call ptr @l_Lean_SMap_switch___at_Lean_Compiler_SpecState_switch___spec__2(ptr noundef %.0.i) #4
  ret ptr %5
}